target datalayout = "e-m:e-p270:32:32-p271:32:32-p272:64:64-i64:64-i128:128-f80:128-n8:16:32:64-S128"
target triple = "x86_64-pc-linux-gnu"

; Function Attrs: nounwind uwtable
define hidden i32 @SDL_CalculateGPUTextureFormatSize_REAL(i32 noundef %0, i32 noundef %1, i32 noundef %2, i32 noundef %3) #0 {
  %5 = alloca i32, align 4
  %6 = alloca i32, align 4
  %7 = alloca i32, align 4
  %8 = alloca i32, align 4
  %9 = alloca i32, align 4
  %10 = alloca i32, align 4
  %11 = alloca i32, align 4
  %12 = alloca i32, align 4
  store i32 %0, ptr %5, align 4
  store i32 %1, ptr %6, align 4
  store i32 %2, ptr %7, align 4
  store i32 %3, ptr %8, align 4
  call void @llvm.lifetime.start.p0(i64 4, ptr %9) #6
  %13 = load i32, ptr %5, align 4
  %14 = call i32 @Texture_GetBlockWidth(i32 noundef %13)
  %15 = icmp sgt i32 %14, 1
  br i1 %15, label %16, label %19

16:                                               ; preds = %4
  %17 = load i32, ptr %5, align 4
  %18 = call i32 @Texture_GetBlockWidth(i32 noundef %17)
  br label %20

19:                                               ; preds = %4
  br label %20

20:                                               ; preds = %19, %16
  %21 = phi i32 [ %18, %16 ], [ 1, %19 ]
  store i32 %21, ptr %9, align 4
  call void @llvm.lifetime.start.p0(i64 4, ptr %10) #6
  %22 = load i32, ptr %5, align 4
  %23 = call i32 @Texture_GetBlockHeight(i32 noundef %22)
  %24 = icmp sgt i32 %23, 1
  br i1 %24, label %25, label %28

25:                                               ; preds = %20
  %26 = load i32, ptr %5, align 4
  %27 = call i32 @Texture_GetBlockHeight(i32 noundef %26)
  br label %29

28:                                               ; preds = %20
  br label %29

29:                                               ; preds = %28, %25
  %30 = phi i32 [ %27, %25 ], [ 1, %28 ]
  store i32 %30, ptr %10, align 4
  call void @llvm.lifetime.start.p0(i64 4, ptr %11) #6
  %31 = load i32, ptr %6, align 4
  %32 = load i32, ptr %9, align 4
  %33 = add i32 %31, %32
  %34 = sub i32 %33, 1
  %35 = load i32, ptr %9, align 4
  %36 = udiv i32 %34, %35
  store i32 %36, ptr %11, align 4
  call void @llvm.lifetime.start.p0(i64 4, ptr %12) #6
  %37 = load i32, ptr %7, align 4
  %38 = load i32, ptr %10, align 4
  %39 = add i32 %37, %38
  %40 = sub i32 %39, 1
  %41 = load i32, ptr %10, align 4
  %42 = udiv i32 %40, %41
  store i32 %42, ptr %12, align 4
  %43 = load i32, ptr %8, align 4
  %44 = load i32, ptr %11, align 4
  %45 = mul i32 %43, %44
  %46 = load i32, ptr %12, align 4
  %47 = mul i32 %45, %46
  %48 = load i32, ptr %5, align 4
  %49 = call i32 @SDL_GPUTextureFormatTexelBlockSize_REAL(i32 noundef %48)
  %50 = mul i32 %47, %49
  call void @llvm.lifetime.end.p0(i64 4, ptr %12) #6
  call void @llvm.lifetime.end.p0(i64 4, ptr %11) #6
  call void @llvm.lifetime.end.p0(i64 4, ptr %10) #6
  call void @llvm.lifetime.end.p0(i64 4, ptr %9) #6
  ret i32 %50
}