; Function Attrs: nounwind uwtable
define hidden i32 @SDL_CalculateGPUTextureFormatSize_REAL(i32 noundef %0, i32 noundef %1, i32 noundef %2, i32 noundef %3) local_unnamed_addr #0 {
  %5 = tail call fastcc i32 @Texture_GetBlockWidth(i32 noundef %0)
  %6 = icmp samesign ugt i32 %5, 1
  br i1 %6, label %7, label %9

7:                                                ; preds = %4
  %8 = tail call fastcc i32 @Texture_GetBlockWidth(i32 noundef %0)
  br label %9

9:                                                ; preds = %4, %7
  %10 = phi i32 [ %8, %7 ], [ 1, %4 ]
  %11 = tail call fastcc i32 @Texture_GetBlockHeight(i32 noundef %0)
  %12 = icmp samesign ugt i32 %11, 1
  br i1 %12, label %13, label %15

13:                                               ; preds = %9
  %14 = tail call fastcc i32 @Texture_GetBlockHeight(i32 noundef %0)
  br label %15

15:                                               ; preds = %9, %13
  %16 = phi i32 [ %14, %13 ], [ 1, %9 ]
  %17 = add i32 %1, -1
  %18 = add i32 %17, %10
  %19 = udiv i32 %18, %10
  %20 = add i32 %2, -1
  %21 = add i32 %20, %16
  %22 = udiv i32 %21, %16
  %23 = mul i32 %19, %3
  %24 = mul i32 %23, %22
  %25 = tail call i32 @SDL_GPUTextureFormatTexelBlockSize_REAL(i32 noundef %0)
  %26 = mul i32 %24, %25
  ret i32 %26
}